; Function Attrs: mustprogress uwtable
define internal void @"_ZN4absl12lts_2023080222internal_any_invocable12LocalInvokerILb0EvRZN6google8protobuf8compiler3cpp13FileGenerator14GenerateSourceEPNS4_2io7PrinterEE3$_0JSA_EEET0_PNS1_15TypeErasedStateEDpNS1_18ForwardedParameterIT2_E4typeE"(ptr nocapture noundef readonly %state, ptr noundef %args) #3 {
entry:
  %call.val = load i32, ptr %state, align 8
  %0 = getelementptr i8, ptr %state, i64 8
  %call.val1 = load ptr, ptr %0, align 8
  %1 = getelementptr i8, ptr %call.val1, i64 728
  %call.val1.val = load ptr, ptr %1, align 8
  %conv.i.i.i.i.i = sext i32 %call.val to i64
  %add.ptr.i.i.i.i.i.i = getelementptr inbounds %"class.std::unique_ptr.159", ptr %call.val1.val, i64 %conv.i.i.i.i.i
  %2 = load ptr, ptr %add.ptr.i.i.i.i.i.i, align 8
  tail call void @_ZN6google8protobuf8compiler3cpp18ExtensionGenerator20GenerateRegistrationEPNS0_2io7PrinterE(ptr noundef nonnull align 8 dereferenceable(288) %2, ptr noundef %args)
  ret void
}